target datalayout = "e-m:e-p270:32:32-p271:32:32-p272:64:64-i64:64-i128:128-f80:128-n8:16:32:64-S128"
target triple = "x86_64-pc-linux-gnu"

%struct.dt_pthread_mutex_t = type { %union.pthread_mutex_t }
%union.pthread_mutex_t = type { %struct.__pthread_mutex_s }
%struct.__pthread_mutex_s = type { i32, i32, i32, i32, i32, i16, i16, %struct.__pthread_internal_list }
%struct.__pthread_internal_list = type { ptr, ptr }
%struct.dt_film_import1_t = type { ptr, ptr }
%struct.dt_film_t = type { i32, [512 x i8], %struct.dt_pthread_mutex_t, ptr, i32, i32, i32 }

; Function Attrs: inlinehint nounwind uwtable
define internal i32 @dt_pthread_mutex_unlock(ptr noundef %0) #5 {
  %2 = alloca ptr, align 8
  store ptr %0, ptr %2, align 8, !tbaa !25
  %3 = load ptr, ptr %2, align 8, !tbaa !25
  %4 = getelementptr inbounds nuw %struct.dt_pthread_mutex_t, ptr %3, i32 0, i32 0
  %5 = call i32 @pthread_mutex_unlock(ptr noundef %4) #9
  ret i32 %5
}

; Function Attrs: inlinehint nounwind uwtable
define internal i32 @dt_pthread_mutex_lock(ptr noundef %0) #5 {
  %2 = alloca ptr, align 8
  store ptr %0, ptr %2, align 8, !tbaa !25
  %3 = load ptr, ptr %2, align 8, !tbaa !25
  %4 = getelementptr inbounds nuw %struct.dt_pthread_mutex_t, ptr %3, i32 0, i32 0
  %5 = call i32 @pthread_mutex_lock(ptr noundef %4) #9
  ret i32 %5
}

; Function Attrs: nounwind uwtable
define internal i32 @dt_film_import1_run(ptr noundef %0) #0 {
  %2 = alloca ptr, align 8
  %3 = alloca ptr, align 8
  store ptr %0, ptr %2, align 8, !tbaa !11
  call void @llvm.lifetime.start.p0(i64 8, ptr %3) #9
  %4 = load ptr, ptr %2, align 8, !tbaa !11
  %5 = call ptr @dt_control_job_get_params(ptr noundef %4)
  store ptr %5, ptr %3, align 8, !tbaa !13
  %6 = load ptr, ptr %2, align 8, !tbaa !11
  %7 = load ptr, ptr %3, align 8, !tbaa !13
  %8 = getelementptr inbounds nuw %struct.dt_film_import1_t, ptr %7, i32 0, i32 0
  %9 = load ptr, ptr %8, align 8, !tbaa !15
  call void @_film_import1(ptr noundef %6, ptr noundef %9, ptr noundef null)
  %10 = load ptr, ptr %3, align 8, !tbaa !13
  %11 = getelementptr inbounds nuw %struct.dt_film_import1_t, ptr %10, i32 0, i32 0
  %12 = load ptr, ptr %11, align 8, !tbaa !15
  %13 = getelementptr inbounds nuw %struct.dt_film_t, ptr %12, i32 0, i32 2
  %14 = call i32 @dt_pthread_mutex_lock(ptr noundef %13)
  %15 = load ptr, ptr %3, align 8, !tbaa !13
  %16 = getelementptr inbounds nuw %struct.dt_film_import1_t, ptr %15, i32 0, i32 0
  %17 = load ptr, ptr %16, align 8, !tbaa !15
  %18 = getelementptr inbounds nuw %struct.dt_film_t, ptr %17, i32 0, i32 6
  %19 = load i32, ptr %18, align 8, !tbaa !18
  %20 = add nsw i32 %19, -1
  store i32 %20, ptr %18, align 8, !tbaa !18
  %21 = load ptr, ptr %3, align 8, !tbaa !13
  %22 = getelementptr inbounds nuw %struct.dt_film_import1_t, ptr %21, i32 0, i32 0
  %23 = load ptr, ptr %22, align 8, !tbaa !15
  %24 = getelementptr inbounds nuw %struct.dt_film_t, ptr %23, i32 0, i32 2
  %25 = call i32 @dt_pthread_mutex_unlock(ptr noundef %24)
  %26 = load ptr, ptr %3, align 8, !tbaa !13
  %27 = getelementptr inbounds nuw %struct.dt_film_import1_t, ptr %26, i32 0, i32 0
  %28 = load ptr, ptr %27, align 8, !tbaa !15
  %29 = getelementptr inbounds nuw %struct.dt_film_t, ptr %28, i32 0, i32 6
  %30 = load i32, ptr %29, align 8, !tbaa !18
  %31 = icmp sle i32 %30, 0
  br i1 %31, label %32, label %47

32:                                               ; preds = %1
  %33 = load ptr, ptr %3, align 8, !tbaa !13
  %34 = getelementptr inbounds nuw %struct.dt_film_import1_t, ptr %33, i32 0, i32 0
  %35 = load ptr, ptr %34, align 8, !tbaa !15
  %36 = getelementptr inbounds nuw %struct.dt_film_t, ptr %35, i32 0, i32 0
  %37 = load i32, ptr %36, align 8, !tbaa !23
  %38 = call i32 @dt_film_is_empty(i32 noundef %37)
  %39 = icmp ne i32 %38, 0
  br i1 %39, label %40, label %46

40:                                               ; preds = %32
  %41 = load ptr, ptr %3, align 8, !tbaa !13
  %42 = getelementptr inbounds nuw %struct.dt_film_import1_t, ptr %41, i32 0, i32 0
  %43 = load ptr, ptr %42, align 8, !tbaa !15
  %44 = getelementptr inbounds nuw %struct.dt_film_t, ptr %43, i32 0, i32 0
  %45 = load i32, ptr %44, align 8, !tbaa !23
  call void @dt_film_remove(i32 noundef %45)
  br label %46

46:                                               ; preds = %40, %32
  br label %47

47:                                               ; preds = %46, %1
  call void (...) @dt_ui_notify_user()
  call void @llvm.lifetime.end.p0(i64 8, ptr %3) #9
  ret i32 0
}