; Function Attrs: nounwind uwtable
define internal noundef i32 @dt_film_import1_run(ptr noundef %0) #0 {
  %2 = tail call ptr @dt_control_job_get_params(ptr noundef %0) #11
  %3 = load ptr, ptr %2, align 8, !tbaa !6
  tail call fastcc void @_film_import1(ptr noundef %0, ptr noundef %3, ptr noundef null)
  %4 = load ptr, ptr %2, align 8, !tbaa !6
  %5 = getelementptr inbounds nuw i8, ptr %4, i64 520
  %6 = tail call i32 @pthread_mutex_lock(ptr noundef nonnull %5) #11
  %7 = load ptr, ptr %2, align 8, !tbaa !6
  %8 = getelementptr inbounds nuw i8, ptr %7, i64 576
  %9 = load i32, ptr %8, align 8, !tbaa !13
  %10 = add nsw i32 %9, -1
  store i32 %10, ptr %8, align 8, !tbaa !13
  %11 = getelementptr inbounds nuw i8, ptr %7, i64 520
  %12 = tail call i32 @pthread_mutex_unlock(ptr noundef nonnull %11) #11
  %13 = load ptr, ptr %2, align 8, !tbaa !6
  %14 = getelementptr inbounds nuw i8, ptr %13, i64 576
  %15 = load i32, ptr %14, align 8, !tbaa !13
  %16 = icmp slt i32 %15, 1
  br i1 %16, label %17, label %23

17:                                               ; preds = %1
  %18 = load i32, ptr %13, align 8, !tbaa !18
  %19 = tail call i32 @dt_film_is_empty(i32 noundef %18) #11
  %.not = icmp eq i32 %19, 0
  br i1 %.not, label %23, label %20

20:                                               ; preds = %17
  %21 = load ptr, ptr %2, align 8, !tbaa !6
  %22 = load i32, ptr %21, align 8, !tbaa !18
  tail call void @dt_film_remove(i32 noundef %22) #11
  br label %23

23:                                               ; preds = %17, %20, %1
  tail call void (...) @dt_ui_notify_user() #11
  ret i32 0
}